target datalayout = "e-m:e-p270:32:32-p271:32:32-p272:64:64-i64:64-i128:128-f80:128-n8:16:32:64-S128"
target triple = "x86_64-pc-linux-gnu"

%"class.facebook::yoga::Config" = type { ptr, ptr, i8, i32, %"class.std::bitset", i32, float, ptr }
%"class.std::bitset" = type { %"struct.std::_Base_bitset" }
%"struct.std::_Base_bitset" = type { i64 }

@.str = private unnamed_addr constant [12 x i8] c"bitset::set\00", align 1
@.str.1 = private unnamed_addr constant [52 x i8] c"%s: __position (which is %zu) >= _Nb (which is %zu)\00", align 1
@.str.2 = private unnamed_addr constant [13 x i8] c"bitset::test\00", align 1

; Function Attrs: mustprogress nounwind uwtable
define linkonce_odr noundef i64 @_ZNSt12_Base_bitsetILm1EE11_S_whichbitEm(i64 noundef %0) #1 comdat align 2 {
  %2 = alloca i64, align 8
  store i64 %0, ptr %2, align 8, !tbaa !27
  %3 = load i64, ptr %2, align 8, !tbaa !27
  %4 = urem i64 %3, 64
  ret i64 %4
}

; Function Attrs: mustprogress nounwind uwtable
define linkonce_odr noundef i64 @_ZNKSt12_Base_bitsetILm1EE10_M_getwordEm(ptr noundef nonnull align 8 dereferenceable(8) %0, i64 noundef %1) #1 comdat align 2 {
  %3 = alloca ptr, align 8
  %4 = alloca i64, align 8
  store ptr %0, ptr %3, align 8, !tbaa !46
  store i64 %1, ptr %4, align 8, !tbaa !27
  %5 = load ptr, ptr %3, align 8
  %6 = getelementptr inbounds nuw %"struct.std::_Base_bitset", ptr %5, i32 0, i32 0
  %7 = load i64, ptr %6, align 8, !tbaa !48
  ret i64 %7
}

; Function Attrs: mustprogress nounwind uwtable
define linkonce_odr noundef nonnull align 8 dereferenceable(8) ptr @_ZNSt12_Base_bitsetILm1EE10_M_getwordEm(ptr noundef nonnull align 8 dereferenceable(8) %0, i64 noundef %1) #1 comdat align 2 {
  %3 = alloca ptr, align 8
  %4 = alloca i64, align 8
  store ptr %0, ptr %3, align 8, !tbaa !46
  store i64 %1, ptr %4, align 8, !tbaa !27
  %5 = load ptr, ptr %3, align 8
  %6 = getelementptr inbounds nuw %"struct.std::_Base_bitset", ptr %5, i32 0, i32 0
  ret ptr %6
}

; Function Attrs: mustprogress nounwind uwtable
define linkonce_odr noundef i64 @_ZNSt12_Base_bitsetILm1EE10_S_maskbitEm(i64 noundef %0) #1 comdat align 2 {
  %2 = alloca i64, align 8
  store i64 %0, ptr %2, align 8, !tbaa !27
  %3 = load i64, ptr %2, align 8, !tbaa !27
  %4 = call noundef i64 @_ZNSt12_Base_bitsetILm1EE11_S_whichbitEm(i64 noundef %3) #6
  %5 = shl i64 1, %4
  ret i64 %5
}

; Function Attrs: mustprogress nounwind uwtable
define linkonce_odr noundef zeroext i1 @_ZNKSt6bitsetILm1EE15_Unchecked_testEm(ptr noundef nonnull align 8 dereferenceable(8) %0, i64 noundef %1) #1 comdat align 2 {
  %3 = alloca ptr, align 8
  %4 = alloca i64, align 8
  store ptr %0, ptr %3, align 8, !tbaa !18
  store i64 %1, ptr %4, align 8, !tbaa !27
  %5 = load ptr, ptr %3, align 8
  %6 = load i64, ptr %4, align 8, !tbaa !27
  %7 = call noundef i64 @_ZNKSt12_Base_bitsetILm1EE10_M_getwordEm(ptr noundef nonnull align 8 dereferenceable(8) %5, i64 noundef %6) #6
  %8 = load i64, ptr %4, align 8, !tbaa !27
  %9 = call noundef i64 @_ZNSt12_Base_bitsetILm1EE10_S_maskbitEm(i64 noundef %8) #6
  %10 = and i64 %7, %9
  %11 = icmp ne i64 %10, 0
  ret i1 %11
}

; Function Attrs: mustprogress nounwind uwtable
define linkonce_odr noundef nonnull align 8 dereferenceable(8) ptr @_ZNSt6bitsetILm1EE14_Unchecked_setEmi(ptr noundef nonnull align 8 dereferenceable(8) %0, i64 noundef %1, i32 noundef %2) #1 comdat align 2 {
  %4 = alloca ptr, align 8
  %5 = alloca i64, align 8
  %6 = alloca i32, align 4
  store ptr %0, ptr %4, align 8, !tbaa !18
  store i64 %1, ptr %5, align 8, !tbaa !27
  store i32 %2, ptr %6, align 4, !tbaa !30
  %7 = load ptr, ptr %4, align 8
  %8 = load i32, ptr %6, align 4, !tbaa !30
  %9 = icmp ne i32 %8, 0
  br i1 %9, label %10, label %17

10:                                               ; preds = %3
  %11 = load i64, ptr %5, align 8, !tbaa !27
  %12 = call noundef i64 @_ZNSt12_Base_bitsetILm1EE10_S_maskbitEm(i64 noundef %11) #6
  %13 = load i64, ptr %5, align 8, !tbaa !27
  %14 = call noundef nonnull align 8 dereferenceable(8) ptr @_ZNSt12_Base_bitsetILm1EE10_M_getwordEm(ptr noundef nonnull align 8 dereferenceable(8) %7, i64 noundef %13) #6
  %15 = load i64, ptr %14, align 8, !tbaa !27
  %16 = or i64 %15, %12
  store i64 %16, ptr %14, align 8, !tbaa !27
  br label %25

17:                                               ; preds = %3
  %18 = load i64, ptr %5, align 8, !tbaa !27
  %19 = call noundef i64 @_ZNSt12_Base_bitsetILm1EE10_S_maskbitEm(i64 noundef %18) #6
  %20 = xor i64 %19, -1
  %21 = load i64, ptr %5, align 8, !tbaa !27
  %22 = call noundef nonnull align 8 dereferenceable(8) ptr @_ZNSt12_Base_bitsetILm1EE10_M_getwordEm(ptr noundef nonnull align 8 dereferenceable(8) %7, i64 noundef %21) #6
  %23 = load i64, ptr %22, align 8, !tbaa !27
  %24 = and i64 %23, %20
  store i64 %24, ptr %22, align 8, !tbaa !27
  br label %25

25:                                               ; preds = %17, %10
  ret ptr %7
}

; Function Attrs: mustprogress uwtable
define linkonce_odr void @_ZNKSt6bitsetILm1EE8_M_checkEmPKc(ptr noundef nonnull align 8 dereferenceable(8) %0, i64 noundef %1, ptr noundef %2) #0 comdat align 2 {
  %4 = alloca ptr, align 8
  %5 = alloca i64, align 8
  %6 = alloca ptr, align 8
  store ptr %0, ptr %4, align 8, !tbaa !18
  store i64 %1, ptr %5, align 8, !tbaa !27
  store ptr %2, ptr %6, align 8, !tbaa !38
  %7 = load i64, ptr %5, align 8, !tbaa !27
  %8 = icmp uge i64 %7, 1
  br i1 %8, label %9, label %12

9:                                                ; preds = %3
  %10 = load ptr, ptr %6, align 8, !tbaa !38
  %11 = load i64, ptr %5, align 8, !tbaa !27
  call void (ptr, ...) @_ZSt24__throw_out_of_range_fmtPKcz(ptr noundef @.str.1, ptr noundef %10, i64 noundef %11, i64 noundef 1) #8
  unreachable

12:                                               ; preds = %3
  ret void
}

; Function Attrs: mustprogress uwtable
define linkonce_odr noundef zeroext i1 @_ZNKSt6bitsetILm1EE4testEm(ptr noundef nonnull align 8 dereferenceable(8) %0, i64 noundef %1) #0 comdat align 2 {
  %3 = alloca ptr, align 8
  %4 = alloca i64, align 8
  store ptr %0, ptr %3, align 8, !tbaa !18
  store i64 %1, ptr %4, align 8, !tbaa !27
  %5 = load ptr, ptr %3, align 8
  %6 = load i64, ptr %4, align 8, !tbaa !27
  call void @_ZNKSt6bitsetILm1EE8_M_checkEmPKc(ptr noundef nonnull align 8 dereferenceable(8) %5, i64 noundef %6, ptr noundef @.str.2)
  %7 = load i64, ptr %4, align 8, !tbaa !27
  %8 = call noundef zeroext i1 @_ZNKSt6bitsetILm1EE15_Unchecked_testEm(ptr noundef nonnull align 8 dereferenceable(8) %5, i64 noundef %7) #6
  ret i1 %8
}

; Function Attrs: mustprogress uwtable
define linkonce_odr noundef nonnull align 8 dereferenceable(8) ptr @_ZNSt6bitsetILm1EE3setEmb(ptr noundef nonnull align 8 dereferenceable(8) %0, i64 noundef %1, i1 noundef zeroext %2) #0 comdat align 2 {
  %4 = alloca ptr, align 8
  %5 = alloca i64, align 8
  %6 = alloca i8, align 1
  store ptr %0, ptr %4, align 8, !tbaa !18
  store i64 %1, ptr %5, align 8, !tbaa !27
  %7 = zext i1 %2 to i8
  store i8 %7, ptr %6, align 1, !tbaa !21
  %8 = load ptr, ptr %4, align 8
  %9 = load i64, ptr %5, align 8, !tbaa !27
  call void @_ZNKSt6bitsetILm1EE8_M_checkEmPKc(ptr noundef nonnull align 8 dereferenceable(8) %8, i64 noundef %9, ptr noundef @.str)
  %10 = load i64, ptr %5, align 8, !tbaa !27
  %11 = load i8, ptr %6, align 1, !tbaa !21, !range !22, !noundef !23
  %12 = trunc i8 %11 to i1
  %13 = zext i1 %12 to i32
  %14 = call noundef nonnull align 8 dereferenceable(8) ptr @_ZNSt6bitsetILm1EE14_Unchecked_setEmi(ptr noundef nonnull align 8 dereferenceable(8) %8, i64 noundef %10, i32 noundef %13) #6
  ret ptr %14
}

; Function Attrs: mustprogress uwtable
define noundef zeroext i1 @_ZNK8facebook4yoga6Config28isExperimentalFeatureEnabledENS0_19ExperimentalFeatureE(ptr noundef nonnull align 8 dereferenceable(48) %0, i8 noundef zeroext %1) #0 align 2 {
  %3 = alloca ptr, align 8
  %4 = alloca i8, align 1
  store ptr %0, ptr %3, align 8, !tbaa !4
  store i8 %1, ptr %4, align 1, !tbaa !24
  %5 = load ptr, ptr %3, align 8
  %6 = getelementptr inbounds nuw %"class.facebook::yoga::Config", ptr %5, i32 0, i32 4
  %7 = load i8, ptr %4, align 1, !tbaa !24
  %8 = zext i8 %7 to i64
  %9 = call noundef zeroext i1 @_ZNKSt6bitsetILm1EE4testEm(ptr noundef nonnull align 8 dereferenceable(8) %6, i64 noundef %8)
  ret i1 %9
}

; Function Attrs: mustprogress uwtable
define void @_ZN8facebook4yoga6Config29setExperimentalFeatureEnabledENS0_19ExperimentalFeatureEb(ptr noundef nonnull align 8 dereferenceable(48) %0, i8 noundef zeroext %1, i1 noundef zeroext %2) #0 align 2 {
  %4 = alloca ptr, align 8
  %5 = alloca i8, align 1
  %6 = alloca i8, align 1
  store ptr %0, ptr %4, align 8, !tbaa !4
  store i8 %1, ptr %5, align 1, !tbaa !24
  %7 = zext i1 %2 to i8
  store i8 %7, ptr %6, align 1, !tbaa !21
  %8 = load ptr, ptr %4, align 8
  %9 = load i8, ptr %5, align 1, !tbaa !24
  %10 = call noundef zeroext i1 @_ZNK8facebook4yoga6Config28isExperimentalFeatureEnabledENS0_19ExperimentalFeatureE(ptr noundef nonnull align 8 dereferenceable(48) %8, i8 noundef zeroext %9)
  %11 = zext i1 %10 to i32
  %12 = load i8, ptr %6, align 1, !tbaa !21, !range !22, !noundef !23
  %13 = trunc i8 %12 to i1
  %14 = zext i1 %13 to i32
  %15 = icmp ne i32 %11, %14
  br i1 %15, label %16, label %26

16:                                               ; preds = %3
  %17 = getelementptr inbounds nuw %"class.facebook::yoga::Config", ptr %8, i32 0, i32 4
  %18 = load i8, ptr %5, align 1, !tbaa !24
  %19 = zext i8 %18 to i64
  %20 = load i8, ptr %6, align 1, !tbaa !21, !range !22, !noundef !23
  %21 = trunc i8 %20 to i1
  %22 = call noundef nonnull align 8 dereferenceable(8) ptr @_ZNSt6bitsetILm1EE3setEmb(ptr noundef nonnull align 8 dereferenceable(8) %17, i64 noundef %19, i1 noundef zeroext %21)
  %23 = getelementptr inbounds nuw %"class.facebook::yoga::Config", ptr %8, i32 0, i32 3
  %24 = load i32, ptr %23, align 4, !tbaa !26
  %25 = add i32 %24, 1
  store i32 %25, ptr %23, align 4, !tbaa !26
  br label %26

26:                                               ; preds = %16, %3
  ret void
}