; Function Attrs: mustprogress uwtable
define void @_ZN8facebook4yoga6Config29setExperimentalFeatureEnabledENS0_19ExperimentalFeatureEb(ptr noundef nonnull align 8 captures(none) dereferenceable(48) %0, i8 noundef zeroext %1, i1 noundef zeroext %2) local_unnamed_addr #2 align 2 {
  %.not.i.i.i = icmp eq i8 %1, 0
  br i1 %.not.i.i.i, label %_ZNK8facebook4yoga6Config28isExperimentalFeatureEnabledENS0_19ExperimentalFeatureE.exit, label %4

4:                                                ; preds = %3
  %5 = zext i8 %1 to i64
  tail call void (ptr, ...) @_ZSt24__throw_out_of_range_fmtPKcz(ptr noundef nonnull @.str.1, ptr noundef nonnull @.str.2, i64 noundef %5, i64 noundef 1) #8
  unreachable

_ZNK8facebook4yoga6Config28isExperimentalFeatureEnabledENS0_19ExperimentalFeatureE.exit: ; preds = %3
  %6 = getelementptr inbounds nuw i8, ptr %0, i64 24
  %7 = load i64, ptr %6, align 8, !tbaa !17
  %8 = and i64 %7, 1
  %9 = icmp ne i64 %8, 0
  %10 = xor i1 %2, %9
  br i1 %10, label %_ZNSt6bitsetILm1EE3setEmb.exit, label %15

_ZNSt6bitsetILm1EE3setEmb.exit:                   ; preds = %_ZNK8facebook4yoga6Config28isExperimentalFeatureEnabledENS0_19ExperimentalFeatureE.exit
  %11 = and i64 %7, -2
  %masksel.i = zext i1 %2 to i64
  %storemerge.i.i = or disjoint i64 %11, %masksel.i
  store i64 %storemerge.i.i, ptr %6, align 8, !tbaa !18
  %12 = getelementptr inbounds nuw i8, ptr %0, i64 20
  %13 = load i32, ptr %12, align 4, !tbaa !19
  %14 = add i32 %13, 1
  store i32 %14, ptr %12, align 4, !tbaa !19
  br label %15

15:                                               ; preds = %_ZNSt6bitsetILm1EE3setEmb.exit, %_ZNK8facebook4yoga6Config28isExperimentalFeatureEnabledENS0_19ExperimentalFeatureE.exit
  ret void
}